; Function Attrs: mustprogress nounwind uwtable
define hidden void @_ZN14GenerateOopMap23do_return_monitor_checkEv(ptr nocapture noundef nonnull align 8 dereferenceable(176) %0) local_unnamed_addr #0 align 2 {
  %2 = getelementptr inbounds i8, ptr %0, i64 92
  %3 = load i32, ptr %2, align 4
  %4 = icmp sgt i32 %3, 0
  br i1 %4, label %5, label %9

5:                                                ; preds = %1
  %6 = getelementptr inbounds i8, ptr %0, i64 66
  store i8 0, ptr %6, align 2
  %7 = load volatile ptr, ptr getelementptr inbounds (i8, ptr @_ZN16LogTagSetMappingILN6LogTag4typeE91ELS1_0ELS1_0ELS1_0ELS1_0ELS1_0EE7_tagsetE, i64 64), align 8
  %.not = icmp eq ptr %7, null
  br i1 %.not, label %9, label %8

8:                                                ; preds = %5
  tail call void @_ZN14GenerateOopMap23report_monitor_mismatchEPKc(ptr noundef nonnull align 8 dereferenceable(176) %0, ptr noundef nonnull @.str.68)
  br label %9

9:                                                ; preds = %5, %8, %1
  ret void
}